target datalayout = "e-m:e-p270:32:32-p271:32:32-p272:64:64-i64:64-i128:128-f80:128-n8:16:32:64-S128"
target triple = "x86_64-pc-linux-gnu"

%struct.AVFilterContext = type { ptr, ptr, ptr, ptr, ptr, i32, ptr, ptr, i32, ptr, ptr, i32, i32, ptr, ptr, ptr, ptr, i32, ptr, i32, i32 }

; Function Attrs: nounwind uwtable
define internal i32 @process_command(ptr noundef %0, ptr noundef %1, ptr noundef %2, ptr noundef %3, i32 noundef %4, i32 noundef %5) #0 {
  %7 = alloca i32, align 4
  %8 = alloca ptr, align 8
  %9 = alloca ptr, align 8
  %10 = alloca ptr, align 8
  %11 = alloca ptr, align 8
  %12 = alloca i32, align 4
  %13 = alloca i32, align 4
  %14 = alloca i32, align 4
  %15 = alloca i32, align 4
  store ptr %0, ptr %8, align 8, !tbaa !4
  store ptr %1, ptr %9, align 8, !tbaa !9
  store ptr %2, ptr %10, align 8, !tbaa !9
  store ptr %3, ptr %11, align 8, !tbaa !9
  store i32 %4, ptr %12, align 4, !tbaa !11
  store i32 %5, ptr %13, align 4, !tbaa !11
  call void @llvm.lifetime.start.p0(i64 4, ptr %14) #8
  %16 = load ptr, ptr %8, align 8, !tbaa !4
  %17 = load ptr, ptr %9, align 8, !tbaa !9
  %18 = load ptr, ptr %10, align 8, !tbaa !9
  %19 = load ptr, ptr %11, align 8, !tbaa !9
  %20 = load i32, ptr %12, align 4, !tbaa !11
  %21 = load i32, ptr %13, align 4, !tbaa !11
  %22 = call i32 @ff_filter_process_command(ptr noundef %16, ptr noundef %17, ptr noundef %18, ptr noundef %19, i32 noundef %20, i32 noundef %21)
  store i32 %22, ptr %14, align 4, !tbaa !11
  %23 = load i32, ptr %14, align 4, !tbaa !11
  %24 = icmp slt i32 %23, 0
  br i1 %24, label %25, label %27

25:                                               ; preds = %6
  %26 = load i32, ptr %14, align 4, !tbaa !11
  store i32 %26, ptr %7, align 4
  store i32 1, ptr %15, align 4
  br label %34

27:                                               ; preds = %6
  %28 = load ptr, ptr %8, align 8, !tbaa !4
  %29 = getelementptr inbounds nuw %struct.AVFilterContext, ptr %28, i32 0, i32 4
  %30 = load ptr, ptr %29, align 8, !tbaa !13
  %31 = getelementptr inbounds ptr, ptr %30, i64 0
  %32 = load ptr, ptr %31, align 8, !tbaa !24
  %33 = call i32 @config_input(ptr noundef %32)
  store i32 %33, ptr %7, align 4
  store i32 1, ptr %15, align 4
  br label %34

34:                                               ; preds = %27, %25
  call void @llvm.lifetime.end.p0(i64 4, ptr %14) #8
  %35 = load i32, ptr %7, align 4
  ret i32 %35
}